target datalayout = "e-m:e-p270:32:32-p271:32:32-p272:64:64-i64:64-i128:128-f80:128-n8:16:32:64-S128"
target triple = "x86_64-pc-linux-gnu"

%struct._packet_info = type { ptr, ptr, i32, i32, %struct.nstime_t, %struct.nstime_t, %struct.nstime_t, i8, ptr, ptr, ptr, ptr, %struct._address, %struct._address, %struct._address, %struct._address, %struct._address, %struct._address, i32, ptr, i8, [3 x i8], %struct.anon, i32, i32, i32, i32, ptr, i8, ptr, ptr, i16, i16, i32, i32, i16, i32, i32, ptr, ptr, ptr, i8, i8, i16, i16, i16, i32, i16, i16, ptr, ptr, ptr, ptr, ptr, i32, i32 }
%struct.nstime_t = type { i64, i32 }
%struct._address = type { i32, i32, ptr, ptr }
%struct.anon = type { i8, [3 x i8] }
%struct._smpp_data_t = type { i8, i32, ptr }

@smpp_decode_dcs_0_sms = internal global i32 -1, align 4
@hf_smpp_source_addr_ton = internal global i32 0, align 4
@hf_smpp_source_addr_npi = internal global i32 0, align 4
@hf_smpp_source_addr = internal global i32 0, align 4
@hf_smpp_schedule_delivery_time = internal global i32 0, align 4
@hf_smpp_schedule_delivery_time_r = internal global i32 0, align 4
@hf_smpp_validity_period = internal global i32 0, align 4
@hf_smpp_validity_period_r = internal global i32 0, align 4
@hf_smpp_sm_default_msg_id = internal global i32 0, align 4
@hf_smpp_sm_length = internal global i32 0, align 4
@hf_smpp_short_message_bin = internal global i32 0, align 4
@hf_smpp_message_id = internal global i32 0, align 4
@proto_smpp = internal global i32 0, align 4
@regdel_fields = internal constant [4 x ptr] [ptr @hf_smpp_regdel_receipt, ptr @hf_smpp_regdel_acks, ptr @hf_smpp_regdel_notif, ptr null], align 16
@.str.970 = private unnamed_addr constant [35 x i8] c"Keep initial delivery time setting\00", align 1
@.str.971 = private unnamed_addr constant [37 x i8] c"Keep initial validity period setting\00", align 1
@.str.972 = private unnamed_addr constant [1 x i8] zeroinitializer, align 1

; Function Attrs: null_pointer_is_valid sspstrong uwtable
define internal ptr @smpp_handle_string_return(ptr noundef %0, ptr noundef %1, ptr noundef %2, i32 noundef %3, ptr noundef %4) #0 {
  %6 = alloca ptr, align 8
  %7 = alloca ptr, align 8
  %8 = alloca ptr, align 8
  %9 = alloca i32, align 4
  %10 = alloca ptr, align 8
  %11 = alloca i32, align 4
  %12 = alloca ptr, align 8
  store ptr %0, ptr %6, align 8
  store ptr %1, ptr %7, align 8
  store ptr %2, ptr %8, align 8
  store i32 %3, ptr %9, align 4
  store ptr %4, ptr %10, align 8
  call void @llvm.lifetime.start.p0(i64 4, ptr %11) #10
  call void @llvm.lifetime.start.p0(i64 8, ptr %12) #10
  %13 = load ptr, ptr %8, align 8
  %14 = getelementptr inbounds nuw %struct._packet_info, ptr %13, i32 0, i32 51
  %15 = load ptr, ptr %14, align 8
  %16 = load ptr, ptr %7, align 8
  %17 = load ptr, ptr %10, align 8
  %18 = load i32, ptr %17, align 4
  %19 = call ptr @tvb_get_stringz_enc(ptr noundef %15, ptr noundef %16, i32 noundef %18, ptr noundef %11, i32 noundef 0)
  store ptr %19, ptr %12, align 8
  %20 = load i32, ptr %11, align 4
  %21 = icmp sgt i32 %20, 0
  br i1 %21, label %22, label %31

22:                                               ; preds = %5
  %23 = load ptr, ptr %6, align 8
  %24 = load i32, ptr %9, align 4
  %25 = load ptr, ptr %7, align 8
  %26 = load ptr, ptr %10, align 8
  %27 = load i32, ptr %26, align 4
  %28 = load i32, ptr %11, align 4
  %29 = load ptr, ptr %12, align 8
  %30 = call ptr @proto_tree_add_string(ptr noundef %23, i32 noundef %24, ptr noundef %25, i32 noundef %27, i32 noundef %28, ptr noundef %29)
  br label %31

31:                                               ; preds = %22, %5
  %32 = load i32, ptr %11, align 4
  %33 = load ptr, ptr %10, align 8
  %34 = load i32, ptr %33, align 4
  %35 = add i32 %34, %32
  store i32 %35, ptr %33, align 4
  %36 = load ptr, ptr %12, align 8
  call void @llvm.lifetime.end.p0(i64 8, ptr %12) #10
  call void @llvm.lifetime.end.p0(i64 4, ptr %11) #10
  ret ptr %36
}

; Function Attrs: null_pointer_is_valid sspstrong uwtable
define internal void @smpp_handle_string(ptr noundef %0, ptr noundef %1, i32 noundef %2, ptr noundef %3) #0 {
  %5 = alloca ptr, align 8
  %6 = alloca ptr, align 8
  %7 = alloca i32, align 4
  %8 = alloca ptr, align 8
  %9 = alloca i32, align 4
  store ptr %0, ptr %5, align 8
  store ptr %1, ptr %6, align 8
  store i32 %2, ptr %7, align 4
  store ptr %3, ptr %8, align 8
  call void @llvm.lifetime.start.p0(i64 4, ptr %9) #10
  %10 = load ptr, ptr %6, align 8
  %11 = load ptr, ptr %8, align 8
  %12 = load i32, ptr %11, align 4
  %13 = call i32 @tvb_strsize(ptr noundef %10, i32 noundef %12)
  store i32 %13, ptr %9, align 4
  %14 = load i32, ptr %9, align 4
  %15 = icmp ugt i32 %14, 1
  br i1 %15, label %16, label %24

16:                                               ; preds = %4
  %17 = load ptr, ptr %5, align 8
  %18 = load i32, ptr %7, align 4
  %19 = load ptr, ptr %6, align 8
  %20 = load ptr, ptr %8, align 8
  %21 = load i32, ptr %20, align 4
  %22 = load i32, ptr %9, align 4
  %23 = call ptr @proto_tree_add_item(ptr noundef %17, i32 noundef %18, ptr noundef %19, i32 noundef %21, i32 noundef %22, i32 noundef 0)
  br label %24

24:                                               ; preds = %16, %4
  %25 = load i32, ptr %9, align 4
  %26 = load ptr, ptr %8, align 8
  %27 = load i32, ptr %26, align 4
  %28 = add i32 %27, %25
  store i32 %28, ptr %26, align 4
  call void @llvm.lifetime.end.p0(i64 4, ptr %9) #10
  ret void
}

; Function Attrs: null_pointer_is_valid sspstrong uwtable
define internal ptr @get_smpp_data(ptr noundef %0) #0 {
  %2 = alloca ptr, align 8
  %3 = alloca ptr, align 8
  store ptr %0, ptr %2, align 8
  call void @llvm.lifetime.start.p0(i64 8, ptr %3) #10
  store ptr null, ptr %3, align 8
  %4 = load ptr, ptr %2, align 8
  %5 = getelementptr inbounds nuw %struct._packet_info, ptr %4, i32 0, i32 51
  %6 = load ptr, ptr %5, align 8
  %7 = load ptr, ptr %2, align 8
  %8 = load i32, ptr @proto_smpp, align 4
  %9 = call ptr @p_get_proto_data(ptr noundef %6, ptr noundef %7, i32 noundef %8, i32 noundef 0)
  store ptr %9, ptr %3, align 8
  %10 = load ptr, ptr %3, align 8
  %11 = icmp ne ptr %10, null
  br i1 %11, label %23, label %12

12:                                               ; preds = %1
  %13 = load ptr, ptr %2, align 8
  %14 = getelementptr inbounds nuw %struct._packet_info, ptr %13, i32 0, i32 51
  %15 = load ptr, ptr %14, align 8
  %16 = call noalias ptr @wmem_alloc0(ptr noundef %15, i64 noundef 16) #12
  store ptr %16, ptr %3, align 8
  %17 = load ptr, ptr %2, align 8
  %18 = getelementptr inbounds nuw %struct._packet_info, ptr %17, i32 0, i32 51
  %19 = load ptr, ptr %18, align 8
  %20 = load ptr, ptr %2, align 8
  %21 = load i32, ptr @proto_smpp, align 4
  %22 = load ptr, ptr %3, align 8
  call void @p_add_proto_data(ptr noundef %19, ptr noundef %20, i32 noundef %21, i32 noundef 0, ptr noundef %22)
  br label %23

23:                                               ; preds = %12, %1
  %24 = load ptr, ptr %3, align 8
  call void @llvm.lifetime.end.p0(i64 8, ptr %3) #10
  ret ptr %24
}

; Function Attrs: null_pointer_is_valid sspstrong uwtable
define internal void @replace_sm(ptr noundef %0, ptr noundef %1, ptr noundef %2, i32 noundef %3) #0 {
  %5 = alloca ptr, align 8
  %6 = alloca ptr, align 8
  %7 = alloca ptr, align 8
  %8 = alloca i32, align 4
  %9 = alloca ptr, align 8
  %10 = alloca ptr, align 8
  %11 = alloca i32, align 4
  %12 = alloca ptr, align 8
  %13 = alloca %struct.nstime_t, align 8
  store ptr %0, ptr %5, align 8
  store ptr %1, ptr %6, align 8
  store ptr %2, ptr %7, align 8
  store i32 %3, ptr %8, align 4
  call void @llvm.lifetime.start.p0(i64 8, ptr %9) #10
  store ptr null, ptr %9, align 8
  call void @llvm.lifetime.start.p0(i64 8, ptr %10) #10
  call void @llvm.lifetime.start.p0(i64 4, ptr %11) #10
  call void @llvm.lifetime.start.p0(i64 8, ptr %12) #10
  store ptr null, ptr %12, align 8
  call void @llvm.lifetime.start.p0(i64 16, ptr %13) #10
  call void @llvm.memset.p0.i64(ptr align 8 %13, i8 0, i64 16, i1 false)
  %14 = load ptr, ptr %7, align 8
  %15 = call ptr @get_smpp_data(ptr noundef %14)
  store ptr %15, ptr %10, align 8
  %16 = load ptr, ptr %5, align 8
  %17 = load ptr, ptr %6, align 8
  %18 = load i32, ptr @hf_smpp_message_id, align 4
  call void @smpp_handle_string(ptr noundef %16, ptr noundef %17, i32 noundef %18, ptr noundef %8)
  %19 = load ptr, ptr %5, align 8
  %20 = load i32, ptr @hf_smpp_source_addr_ton, align 4
  %21 = load ptr, ptr %6, align 8
  %22 = load i32, ptr %8, align 4
  %23 = call ptr @proto_tree_add_item(ptr noundef %19, i32 noundef %20, ptr noundef %21, i32 noundef %22, i32 noundef 1, i32 noundef 0)
  %24 = load i32, ptr %8, align 4
  %25 = add i32 %24, 1
  store i32 %25, ptr %8, align 4
  %26 = load ptr, ptr %5, align 8
  %27 = load i32, ptr @hf_smpp_source_addr_npi, align 4
  %28 = load ptr, ptr %6, align 8
  %29 = load i32, ptr %8, align 4
  %30 = call ptr @proto_tree_add_item(ptr noundef %26, i32 noundef %27, ptr noundef %28, i32 noundef %29, i32 noundef 1, i32 noundef 0)
  %31 = load i32, ptr %8, align 4
  %32 = add i32 %31, 1
  store i32 %32, ptr %8, align 4
  %33 = load ptr, ptr %5, align 8
  %34 = load ptr, ptr %6, align 8
  %35 = load ptr, ptr %7, align 8
  %36 = load i32, ptr @hf_smpp_source_addr, align 4
  %37 = call ptr @smpp_handle_string_return(ptr noundef %33, ptr noundef %34, ptr noundef %35, i32 noundef %36, ptr noundef %8)
  store ptr %37, ptr %12, align 8
  %38 = load ptr, ptr %6, align 8
  %39 = load i32, ptr %8, align 4
  %40 = call zeroext i8 @tvb_get_uint8(ptr noundef %38, i32 noundef %39)
  %41 = icmp ne i8 %40, 0
  br i1 %41, label %42, label %48

42:                                               ; preds = %4
  %43 = load ptr, ptr %5, align 8
  %44 = load ptr, ptr %6, align 8
  %45 = load ptr, ptr %7, align 8
  %46 = load i32, ptr @hf_smpp_schedule_delivery_time, align 4
  %47 = load i32, ptr @hf_smpp_schedule_delivery_time_r, align 4
  call void @smpp_handle_time(ptr noundef %43, ptr noundef %44, ptr noundef %45, i32 noundef %46, i32 noundef %47, ptr noundef %8)
  br label %55

48:                                               ; preds = %4
  %49 = load ptr, ptr %5, align 8
  %50 = load i32, ptr @hf_smpp_schedule_delivery_time_r, align 4
  %51 = load ptr, ptr %6, align 8
  %52 = load i32, ptr %8, align 4
  %53 = add i32 %52, 1
  store i32 %53, ptr %8, align 4
  %54 = call ptr (ptr, i32, ptr, i32, i32, ptr, ptr, ...) @proto_tree_add_time_format_value(ptr noundef %49, i32 noundef %50, ptr noundef %51, i32 noundef %52, i32 noundef 1, ptr noundef %13, ptr noundef @.str.970)
  br label %55

55:                                               ; preds = %48, %42
  %56 = load ptr, ptr %6, align 8
  %57 = load i32, ptr %8, align 4
  %58 = call zeroext i8 @tvb_get_uint8(ptr noundef %56, i32 noundef %57)
  %59 = icmp ne i8 %58, 0
  br i1 %59, label %60, label %66

60:                                               ; preds = %55
  %61 = load ptr, ptr %5, align 8
  %62 = load ptr, ptr %6, align 8
  %63 = load ptr, ptr %7, align 8
  %64 = load i32, ptr @hf_smpp_validity_period, align 4
  %65 = load i32, ptr @hf_smpp_validity_period_r, align 4
  call void @smpp_handle_time(ptr noundef %61, ptr noundef %62, ptr noundef %63, i32 noundef %64, i32 noundef %65, ptr noundef %8)
  br label %73

66:                                               ; preds = %55
  %67 = load ptr, ptr %5, align 8
  %68 = load i32, ptr @hf_smpp_validity_period_r, align 4
  %69 = load ptr, ptr %6, align 8
  %70 = load i32, ptr %8, align 4
  %71 = add i32 %70, 1
  store i32 %71, ptr %8, align 4
  %72 = call ptr (ptr, i32, ptr, i32, i32, ptr, ptr, ...) @proto_tree_add_time_format_value(ptr noundef %67, i32 noundef %68, ptr noundef %69, i32 noundef %70, i32 noundef 1, ptr noundef %13, ptr noundef @.str.971)
  br label %73

73:                                               ; preds = %66, %60
  %74 = load ptr, ptr %5, align 8
  %75 = load ptr, ptr %6, align 8
  %76 = load i32, ptr %8, align 4
  call void @proto_tree_add_bitmask_list(ptr noundef %74, ptr noundef %75, i32 noundef %76, i32 noundef 1, ptr noundef @regdel_fields, i32 noundef 0)
  %77 = load i32, ptr %8, align 4
  %78 = add i32 %77, 1
  store i32 %78, ptr %8, align 4
  %79 = load ptr, ptr %5, align 8
  %80 = load i32, ptr @hf_smpp_sm_default_msg_id, align 4
  %81 = load ptr, ptr %6, align 8
  %82 = load i32, ptr %8, align 4
  %83 = call ptr @proto_tree_add_item(ptr noundef %79, i32 noundef %80, ptr noundef %81, i32 noundef %82, i32 noundef 1, i32 noundef 0)
  %84 = load i32, ptr %8, align 4
  %85 = add i32 %84, 1
  store i32 %85, ptr %8, align 4
  %86 = load ptr, ptr %5, align 8
  %87 = load i32, ptr @hf_smpp_sm_length, align 4
  %88 = load ptr, ptr %6, align 8
  %89 = load i32, ptr %8, align 4
  %90 = add i32 %89, 1
  store i32 %90, ptr %8, align 4
  %91 = call ptr @proto_tree_add_item_ret_uint(ptr noundef %86, i32 noundef %87, ptr noundef %88, i32 noundef %89, i32 noundef 1, i32 noundef 0, ptr noundef %11)
  %92 = load i32, ptr @smpp_decode_dcs_0_sms, align 4
  %93 = load ptr, ptr %10, align 8
  %94 = getelementptr inbounds nuw %struct._smpp_data_t, ptr %93, i32 0, i32 1
  store i32 %92, ptr %94, align 4
  %95 = load i32, ptr %11, align 4
  %96 = icmp ne i32 %95, 0
  br i1 %96, label %97, label %108

97:                                               ; preds = %73
  %98 = load ptr, ptr %5, align 8
  %99 = load i32, ptr @hf_smpp_short_message_bin, align 4
  %100 = load ptr, ptr %6, align 8
  %101 = load i32, ptr %8, align 4
  %102 = load i32, ptr %11, align 4
  %103 = call ptr @proto_tree_add_item(ptr noundef %98, i32 noundef %99, ptr noundef %100, i32 noundef %101, i32 noundef %102, i32 noundef 0)
  %104 = load ptr, ptr %6, align 8
  %105 = load i32, ptr %8, align 4
  %106 = load i32, ptr %11, align 4
  %107 = call ptr @tvb_new_subset_length(ptr noundef %104, i32 noundef %105, i32 noundef %106)
  store ptr %107, ptr %9, align 8
  br label %108

108:                                              ; preds = %97, %73
  %109 = load i32, ptr %11, align 4
  %110 = load i32, ptr %8, align 4
  %111 = add i32 %110, %109
  store i32 %111, ptr %8, align 4
  %112 = load ptr, ptr %5, align 8
  %113 = load ptr, ptr %6, align 8
  %114 = load ptr, ptr %7, align 8
  call void @smpp_handle_tlv(ptr noundef %112, ptr noundef %113, ptr noundef %114, ptr noundef %8, ptr noundef %9)
  %115 = load ptr, ptr %9, align 8
  %116 = icmp ne ptr %115, null
  br i1 %116, label %117, label %122

117:                                              ; preds = %108
  %118 = load ptr, ptr %5, align 8
  %119 = load ptr, ptr %9, align 8
  %120 = load ptr, ptr %7, align 8
  %121 = load ptr, ptr %12, align 8
  call void @smpp_handle_msg(ptr noundef %118, ptr noundef %119, ptr noundef %120, ptr noundef %121, ptr noundef @.str.972)
  br label %122

122:                                              ; preds = %117, %108
  call void @llvm.lifetime.end.p0(i64 16, ptr %13) #10
  call void @llvm.lifetime.end.p0(i64 8, ptr %12) #10
  call void @llvm.lifetime.end.p0(i64 4, ptr %11) #10
  call void @llvm.lifetime.end.p0(i64 8, ptr %10) #10
  call void @llvm.lifetime.end.p0(i64 8, ptr %9) #10
  ret void
}