; Function Attrs: null_pointer_is_valid sspstrong uwtable
define internal fastcc void @replace_sm(ptr noundef %0, ptr noundef %1, ptr noundef %2) unnamed_addr #0 {
  %4 = alloca i32, align 4
  %5 = alloca i32, align 4
  %6 = alloca ptr, align 8
  %7 = alloca i32, align 4
  %8 = alloca %struct.nstime_t, align 8
  store i32 16, ptr %5, align 4
  call void @llvm.lifetime.start.p0(i64 8, ptr nonnull %6) #10
  store ptr null, ptr %6, align 8
  call void @llvm.lifetime.start.p0(i64 4, ptr nonnull %7) #10
  call void @llvm.lifetime.start.p0(i64 16, ptr nonnull %8) #10
  call void @llvm.memset.p0.i64(ptr noundef nonnull align 8 dereferenceable(16) %8, i8 0, i64 16, i1 false)
  %9 = getelementptr inbounds nuw i8, ptr %2, i64 408
  %10 = load ptr, ptr %9, align 8
  %11 = load i32, ptr @proto_smpp, align 4
  %12 = tail call ptr @p_get_proto_data(ptr noundef %10, ptr noundef %2, i32 noundef %11, i32 noundef 0)
  %.not.i = icmp eq ptr %12, null
  br i1 %.not.i, label %13, label %get_smpp_data.exit

13:                                               ; preds = %3
  %14 = load ptr, ptr %9, align 8
  %15 = tail call noalias dereferenceable_or_null(16) ptr @wmem_alloc0(ptr noundef %14, i64 noundef 16) #12
  %16 = load ptr, ptr %9, align 8
  %17 = load i32, ptr @proto_smpp, align 4
  tail call void @p_add_proto_data(ptr noundef %16, ptr noundef %2, i32 noundef %17, i32 noundef 0, ptr noundef %15)
  br label %get_smpp_data.exit

get_smpp_data.exit:                               ; preds = %3, %13
  %.0.i = phi ptr [ %12, %3 ], [ %15, %13 ]
  %18 = load i32, ptr @hf_smpp_message_id, align 4
  %19 = tail call i32 @tvb_strsize(ptr noundef %1, i32 noundef 16)
  %20 = icmp ugt i32 %19, 1
  br i1 %20, label %21, label %smpp_handle_string.exit

21:                                               ; preds = %get_smpp_data.exit
  %22 = tail call ptr @proto_tree_add_item(ptr noundef %0, i32 noundef %18, ptr noundef %1, i32 noundef 16, i32 noundef %19, i32 noundef 0)
  br label %smpp_handle_string.exit

smpp_handle_string.exit:                          ; preds = %get_smpp_data.exit, %21
  %23 = add i32 %19, 16
  %24 = load i32, ptr @hf_smpp_source_addr_ton, align 4
  %25 = tail call ptr @proto_tree_add_item(ptr noundef %0, i32 noundef %24, ptr noundef %1, i32 noundef %23, i32 noundef 1, i32 noundef 0)
  %26 = add i32 %19, 17
  %27 = load i32, ptr @hf_smpp_source_addr_npi, align 4
  %28 = tail call ptr @proto_tree_add_item(ptr noundef %0, i32 noundef %27, ptr noundef %1, i32 noundef %26, i32 noundef 1, i32 noundef 0)
  %29 = add i32 %19, 18
  %30 = load i32, ptr @hf_smpp_source_addr, align 4
  %.val43 = load ptr, ptr %9, align 8
  call void @llvm.lifetime.start.p0(i64 4, ptr nonnull %4) #10
  %31 = call ptr @tvb_get_stringz_enc(ptr noundef %.val43, ptr noundef %1, i32 noundef %29, ptr noundef nonnull %4, i32 noundef 0)
  %32 = load i32, ptr %4, align 4
  %33 = icmp sgt i32 %32, 0
  br i1 %33, label %34, label %smpp_handle_string_return.exit

34:                                               ; preds = %smpp_handle_string.exit
  %35 = call ptr @proto_tree_add_string(ptr noundef %0, i32 noundef %30, ptr noundef %1, i32 noundef %29, i32 noundef %32, ptr noundef %31)
  %.pre.i = load i32, ptr %4, align 4
  br label %smpp_handle_string_return.exit

smpp_handle_string_return.exit:                   ; preds = %smpp_handle_string.exit, %34
  %36 = phi i32 [ %.pre.i, %34 ], [ %32, %smpp_handle_string.exit ]
  %37 = add i32 %29, %36
  store i32 %37, ptr %5, align 4
  call void @llvm.lifetime.end.p0(i64 4, ptr nonnull %4) #10
  %38 = call zeroext i8 @tvb_get_uint8(ptr noundef %1, i32 noundef %37)
  %.not = icmp eq i8 %38, 0
  br i1 %.not, label %42, label %39

39:                                               ; preds = %smpp_handle_string_return.exit
  %40 = load i32, ptr @hf_smpp_schedule_delivery_time, align 4
  %41 = load i32, ptr @hf_smpp_schedule_delivery_time_r, align 4
  %.val = load ptr, ptr %9, align 8
  call fastcc void @smpp_handle_time(ptr noundef %0, ptr noundef %1, ptr %.val, i32 noundef %40, i32 noundef %41, ptr noundef nonnull %5)
  %.pre = load i32, ptr %5, align 4
  br label %46

42:                                               ; preds = %smpp_handle_string_return.exit
  %43 = load i32, ptr @hf_smpp_schedule_delivery_time_r, align 4
  %44 = add i32 %37, 1
  store i32 %44, ptr %5, align 4
  %45 = call ptr (ptr, i32, ptr, i32, i32, ptr, ptr, ...) @proto_tree_add_time_format_value(ptr noundef %0, i32 noundef %43, ptr noundef %1, i32 noundef %37, i32 noundef 1, ptr noundef nonnull %8, ptr noundef nonnull @.str.970)
  br label %46

46:                                               ; preds = %42, %39
  %47 = phi i32 [ %44, %42 ], [ %.pre, %39 ]
  %48 = call zeroext i8 @tvb_get_uint8(ptr noundef %1, i32 noundef %47)
  %.not39 = icmp eq i8 %48, 0
  br i1 %.not39, label %52, label %49

49:                                               ; preds = %46
  %50 = load i32, ptr @hf_smpp_validity_period, align 4
  %51 = load i32, ptr @hf_smpp_validity_period_r, align 4
  %.val42 = load ptr, ptr %9, align 8
  call fastcc void @smpp_handle_time(ptr noundef %0, ptr noundef %1, ptr %.val42, i32 noundef %50, i32 noundef %51, ptr noundef nonnull %5)
  %.pre44 = load i32, ptr %5, align 4
  br label %56

52:                                               ; preds = %46
  %53 = load i32, ptr @hf_smpp_validity_period_r, align 4
  %54 = add i32 %47, 1
  %55 = call ptr (ptr, i32, ptr, i32, i32, ptr, ptr, ...) @proto_tree_add_time_format_value(ptr noundef %0, i32 noundef %53, ptr noundef %1, i32 noundef %47, i32 noundef 1, ptr noundef nonnull %8, ptr noundef nonnull @.str.971)
  br label %56

56:                                               ; preds = %52, %49
  %57 = phi i32 [ %54, %52 ], [ %.pre44, %49 ]
  call void @proto_tree_add_bitmask_list(ptr noundef %0, ptr noundef %1, i32 noundef %57, i32 noundef 1, ptr noundef nonnull @regdel_fields, i32 noundef 0)
  %58 = add i32 %57, 1
  %59 = load i32, ptr @hf_smpp_sm_default_msg_id, align 4
  %60 = call ptr @proto_tree_add_item(ptr noundef %0, i32 noundef %59, ptr noundef %1, i32 noundef %58, i32 noundef 1, i32 noundef 0)
  %61 = add i32 %57, 2
  %62 = load i32, ptr @hf_smpp_sm_length, align 4
  %63 = add i32 %57, 3
  %64 = call ptr @proto_tree_add_item_ret_uint(ptr noundef %0, i32 noundef %62, ptr noundef %1, i32 noundef %61, i32 noundef 1, i32 noundef 0, ptr noundef nonnull %7)
  %65 = load i32, ptr @smpp_decode_dcs_0_sms, align 4
  %66 = getelementptr inbounds nuw i8, ptr %.0.i, i64 4
  store i32 %65, ptr %66, align 4
  %67 = load i32, ptr %7, align 4
  %.not40 = icmp eq i32 %67, 0
  br i1 %.not40, label %73, label %68

68:                                               ; preds = %56
  %69 = load i32, ptr @hf_smpp_short_message_bin, align 4
  %70 = call ptr @proto_tree_add_item(ptr noundef %0, i32 noundef %69, ptr noundef %1, i32 noundef %63, i32 noundef %67, i32 noundef 0)
  %71 = load i32, ptr %7, align 4
  %72 = call ptr @tvb_new_subset_length(ptr noundef %1, i32 noundef %63, i32 noundef %71)
  store ptr %72, ptr %6, align 8
  %.pre45 = load i32, ptr %7, align 4
  br label %73

73:                                               ; preds = %68, %56
  %74 = phi i32 [ %.pre45, %68 ], [ 0, %56 ]
  %75 = add i32 %63, %74
  store i32 %75, ptr %5, align 4
  call fastcc void @smpp_handle_tlv(ptr noundef %0, ptr noundef %1, ptr noundef %2, ptr noundef nonnull %5, ptr noundef nonnull %6)
  %76 = load ptr, ptr %6, align 8
  %.not41 = icmp eq ptr %76, null
  br i1 %.not41, label %78, label %77

77:                                               ; preds = %73
  call fastcc void @smpp_handle_msg(ptr noundef %0, ptr noundef %76, ptr noundef %2, ptr noundef %31, ptr noundef nonnull @.str.972)
  br label %78

78:                                               ; preds = %77, %73
  call void @llvm.lifetime.end.p0(i64 16, ptr nonnull %8) #10
  call void @llvm.lifetime.end.p0(i64 4, ptr nonnull %7) #10
  call void @llvm.lifetime.end.p0(i64 8, ptr nonnull %6) #10
  ret void
}